target datalayout = "e-m:e-p270:32:32-p271:32:32-p272:64:64-i64:64-i128:128-f80:128-n8:16:32:64-S128"
target triple = "x86_64-pc-linux-gnu"

@.str = private unnamed_addr constant [9 x i8] c"No error\00", align 1
@.str.26 = private unnamed_addr constant [14 x i8] c"Out of memory\00", align 1
@.str.36 = private unnamed_addr constant [49 x i8] c"Operation was aborted by an application callback\00", align 1
@.str.37 = private unnamed_addr constant [44 x i8] c"A libcurl function was given a bad argument\00", align 1
@.str.78 = private unnamed_addr constant [41 x i8] c"API function called from within callback\00", align 1
@.str.84 = private unnamed_addr constant [35 x i8] c"Unrecoverable error in select/poll\00", align 1
@.str.87 = private unnamed_addr constant [14 x i8] c"Unknown error\00", align 1
@.str.88 = private unnamed_addr constant [38 x i8] c"Please call curl_multi_perform() soon\00", align 1
@.str.89 = private unnamed_addr constant [21 x i8] c"Invalid multi handle\00", align 1
@.str.90 = private unnamed_addr constant [20 x i8] c"Invalid easy handle\00", align 1
@.str.91 = private unnamed_addr constant [15 x i8] c"Internal error\00", align 1
@.str.92 = private unnamed_addr constant [24 x i8] c"Invalid socket argument\00", align 1
@.str.93 = private unnamed_addr constant [15 x i8] c"Unknown option\00", align 1
@.str.94 = private unnamed_addr constant [51 x i8] c"The easy handle is already added to a multi handle\00", align 1
@.str.95 = private unnamed_addr constant [32 x i8] c"Wakeup is unavailable or failed\00", align 1

; Function Attrs: nounwind uwtable
define ptr @curl_multi_strerror(i32 noundef %0) #0 {
  %2 = alloca ptr, align 8
  %3 = alloca i32, align 4
  store i32 %0, ptr %3, align 4, !tbaa !3
  %4 = load i32, ptr %3, align 4, !tbaa !3
  switch i32 %4, label %19 [
    i32 -1, label %5
    i32 0, label %6
    i32 1, label %7
    i32 2, label %8
    i32 3, label %9
    i32 4, label %10
    i32 5, label %11
    i32 6, label %12
    i32 7, label %13
    i32 8, label %14
    i32 9, label %15
    i32 10, label %16
    i32 11, label %17
    i32 12, label %18
    i32 13, label %19
  ]

5:                                                ; preds = %1
  store ptr @.str.88, ptr %2, align 8
  br label %20

6:                                                ; preds = %1
  store ptr @.str, ptr %2, align 8
  br label %20

7:                                                ; preds = %1
  store ptr @.str.89, ptr %2, align 8
  br label %20

8:                                                ; preds = %1
  store ptr @.str.90, ptr %2, align 8
  br label %20

9:                                                ; preds = %1
  store ptr @.str.26, ptr %2, align 8
  br label %20

10:                                               ; preds = %1
  store ptr @.str.91, ptr %2, align 8
  br label %20

11:                                               ; preds = %1
  store ptr @.str.92, ptr %2, align 8
  br label %20

12:                                               ; preds = %1
  store ptr @.str.93, ptr %2, align 8
  br label %20

13:                                               ; preds = %1
  store ptr @.str.94, ptr %2, align 8
  br label %20

14:                                               ; preds = %1
  store ptr @.str.78, ptr %2, align 8
  br label %20

15:                                               ; preds = %1
  store ptr @.str.95, ptr %2, align 8
  br label %20

16:                                               ; preds = %1
  store ptr @.str.37, ptr %2, align 8
  br label %20

17:                                               ; preds = %1
  store ptr @.str.36, ptr %2, align 8
  br label %20

18:                                               ; preds = %1
  store ptr @.str.84, ptr %2, align 8
  br label %20

19:                                               ; preds = %1, %1
  store ptr @.str.87, ptr %2, align 8
  br label %20

20:                                               ; preds = %19, %18, %17, %16, %15, %14, %13, %12, %11, %10, %9, %8, %7, %6, %5
  %21 = load ptr, ptr %2, align 8
  ret ptr %21
}